target datalayout = "e-m:e-p270:32:32-p271:32:32-p272:64:64-i64:64-i128:128-f80:128-n8:16:32:64-S128"
target triple = "x86_64-pc-linux-gnu"

%struct.Aig_Man_t_ = type { ptr, ptr, ptr, ptr, ptr, ptr, ptr, %struct.Aig_Obj_t_, i32, i32, i32, i32, i32, i32, [7 x i32], i32, ptr, i32, ptr, i32, ptr, i32, i32, i32, ptr, i32, i32, i32, i32, i32, ptr, ptr, i32, ptr, ptr, i32, ptr, ptr, i32, i32, i32, ptr, ptr, ptr, ptr, ptr, ptr, ptr, ptr, ptr, ptr, ptr, ptr, ptr, ptr, i32, ptr, ptr, ptr, ptr, i32, i64, i64, i64, ptr, ptr }
%struct.Aig_Obj_t_ = type { %union.anon, ptr, ptr, i64, i32, i32, %union.anon.0 }
%union.anon = type { ptr }
%union.anon.0 = type { ptr }

; Function Attrs: nounwind uwtable
define internal i32 @Aig_IsComplement(ptr noundef %0) #0 {
  %2 = alloca ptr, align 8
  store ptr %0, ptr %2, align 8
  %3 = load ptr, ptr %2, align 8
  %4 = ptrtoint ptr %3 to i64
  %5 = and i64 %4, 1
  %6 = trunc i64 %5 to i32
  ret i32 %6
}

; Function Attrs: nounwind uwtable
define internal i32 @Aig_ObjFaninC1(ptr noundef %0) #0 {
  %2 = alloca ptr, align 8
  store ptr %0, ptr %2, align 8
  %3 = load ptr, ptr %2, align 8
  %4 = getelementptr inbounds %struct.Aig_Obj_t_, ptr %3, i32 0, i32 2
  %5 = load ptr, ptr %4, align 8
  %6 = call i32 @Aig_IsComplement(ptr noundef %5)
  ret i32 %6
}

; Function Attrs: nounwind uwtable
define internal i32 @Aig_ObjFaninC0(ptr noundef %0) #0 {
  %2 = alloca ptr, align 8
  store ptr %0, ptr %2, align 8
  %3 = load ptr, ptr %2, align 8
  %4 = getelementptr inbounds %struct.Aig_Obj_t_, ptr %3, i32 0, i32 1
  %5 = load ptr, ptr %4, align 8
  %6 = call i32 @Aig_IsComplement(ptr noundef %5)
  ret i32 %6
}

; Function Attrs: nounwind uwtable
define internal i32 @Aig_ObjIsExor(ptr noundef %0) #0 {
  %2 = alloca ptr, align 8
  store ptr %0, ptr %2, align 8
  %3 = load ptr, ptr %2, align 8
  %4 = getelementptr inbounds %struct.Aig_Obj_t_, ptr %3, i32 0, i32 3
  %5 = load i64, ptr %4, align 8
  %6 = and i64 %5, 7
  %7 = trunc i64 %6 to i32
  %8 = icmp eq i32 %7, 6
  %9 = zext i1 %8 to i32
  ret i32 %9
}

; Function Attrs: nounwind uwtable
define internal i32 @Aig_ObjType(ptr noundef %0) #0 {
  %2 = alloca ptr, align 8
  store ptr %0, ptr %2, align 8
  %3 = load ptr, ptr %2, align 8
  %4 = getelementptr inbounds %struct.Aig_Obj_t_, ptr %3, i32 0, i32 3
  %5 = load i64, ptr %4, align 8
  %6 = and i64 %5, 7
  %7 = trunc i64 %6 to i32
  ret i32 %7
}

; Function Attrs: nounwind uwtable
define internal ptr @Aig_ObjChild1(ptr noundef %0) #0 {
  %2 = alloca ptr, align 8
  store ptr %0, ptr %2, align 8
  %3 = load ptr, ptr %2, align 8
  %4 = getelementptr inbounds %struct.Aig_Obj_t_, ptr %3, i32 0, i32 2
  %5 = load ptr, ptr %4, align 8
  ret ptr %5
}

; Function Attrs: nounwind uwtable
define internal ptr @Aig_ObjChild0(ptr noundef %0) #0 {
  %2 = alloca ptr, align 8
  store ptr %0, ptr %2, align 8
  %3 = load ptr, ptr %2, align 8
  %4 = getelementptr inbounds %struct.Aig_Obj_t_, ptr %3, i32 0, i32 1
  %5 = load ptr, ptr %4, align 8
  ret ptr %5
}

; Function Attrs: nounwind uwtable
define internal i64 @Aig_Hash(ptr noundef %0, i32 noundef %1) #0 {
  %3 = alloca ptr, align 8
  %4 = alloca i32, align 4
  %5 = alloca i64, align 8
  store ptr %0, ptr %3, align 8
  store i32 %1, ptr %4, align 4
  %6 = load ptr, ptr %3, align 8
  %7 = call i32 @Aig_ObjIsExor(ptr noundef %6)
  %8 = mul nsw i32 %7, 1699
  %9 = sext i32 %8 to i64
  store i64 %9, ptr %5, align 8
  %10 = load ptr, ptr %3, align 8
  %11 = call ptr @Aig_ObjFanin0(ptr noundef %10)
  %12 = getelementptr inbounds %struct.Aig_Obj_t_, ptr %11, i32 0, i32 5
  %13 = load i32, ptr %12, align 4
  %14 = mul nsw i32 %13, 7937
  %15 = sext i32 %14 to i64
  %16 = load i64, ptr %5, align 8
  %17 = xor i64 %16, %15
  store i64 %17, ptr %5, align 8
  %18 = load ptr, ptr %3, align 8
  %19 = call ptr @Aig_ObjFanin1(ptr noundef %18)
  %20 = getelementptr inbounds %struct.Aig_Obj_t_, ptr %19, i32 0, i32 5
  %21 = load i32, ptr %20, align 4
  %22 = mul nsw i32 %21, 2971
  %23 = sext i32 %22 to i64
  %24 = load i64, ptr %5, align 8
  %25 = xor i64 %24, %23
  store i64 %25, ptr %5, align 8
  %26 = load ptr, ptr %3, align 8
  %27 = call i32 @Aig_ObjFaninC0(ptr noundef %26)
  %28 = mul nsw i32 %27, 911
  %29 = sext i32 %28 to i64
  %30 = load i64, ptr %5, align 8
  %31 = xor i64 %30, %29
  store i64 %31, ptr %5, align 8
  %32 = load ptr, ptr %3, align 8
  %33 = call i32 @Aig_ObjFaninC1(ptr noundef %32)
  %34 = mul nsw i32 %33, 353
  %35 = sext i32 %34 to i64
  %36 = load i64, ptr %5, align 8
  %37 = xor i64 %36, %35
  store i64 %37, ptr %5, align 8
  %38 = load i64, ptr %5, align 8
  %39 = load i32, ptr %4, align 4
  %40 = sext i32 %39 to i64
  %41 = urem i64 %38, %40
  ret i64 %41
}

; Function Attrs: nounwind uwtable
define internal ptr @Aig_ObjFanin1(ptr noundef %0) #0 {
  %2 = alloca ptr, align 8
  store ptr %0, ptr %2, align 8
  %3 = load ptr, ptr %2, align 8
  %4 = getelementptr inbounds %struct.Aig_Obj_t_, ptr %3, i32 0, i32 2
  %5 = load ptr, ptr %4, align 8
  %6 = call ptr @Aig_Regular(ptr noundef %5)
  ret ptr %6
}

; Function Attrs: nounwind uwtable
define internal i32 @Aig_ObjRefs(ptr noundef %0) #0 {
  %2 = alloca ptr, align 8
  store ptr %0, ptr %2, align 8
  %3 = load ptr, ptr %2, align 8
  %4 = getelementptr inbounds %struct.Aig_Obj_t_, ptr %3, i32 0, i32 3
  %5 = load i64, ptr %4, align 8
  %6 = lshr i64 %5, 6
  %7 = and i64 %6, 67108863
  %8 = trunc i64 %7 to i32
  ret i32 %8
}

; Function Attrs: nounwind uwtable
define internal ptr @Aig_ObjFanin0(ptr noundef %0) #0 {
  %2 = alloca ptr, align 8
  store ptr %0, ptr %2, align 8
  %3 = load ptr, ptr %2, align 8
  %4 = getelementptr inbounds %struct.Aig_Obj_t_, ptr %3, i32 0, i32 1
  %5 = load ptr, ptr %4, align 8
  %6 = call ptr @Aig_Regular(ptr noundef %5)
  ret ptr %6
}

; Function Attrs: nounwind uwtable
define internal ptr @Aig_ManGhost(ptr noundef %0) #0 {
  %2 = alloca ptr, align 8
  store ptr %0, ptr %2, align 8
  %3 = load ptr, ptr %2, align 8
  %4 = getelementptr inbounds %struct.Aig_Man_t_, ptr %3, i32 0, i32 7
  ret ptr %4
}

; Function Attrs: nounwind uwtable
define ptr @Aig_TableLookup(ptr noundef %0, ptr noundef %1) #0 {
  %3 = alloca ptr, align 8
  %4 = alloca ptr, align 8
  %5 = alloca ptr, align 8
  %6 = alloca ptr, align 8
  store ptr %0, ptr %4, align 8
  store ptr %1, ptr %5, align 8
  %7 = load ptr, ptr %4, align 8
  %8 = getelementptr inbounds %struct.Aig_Man_t_, ptr %7, i32 0, i32 16
  %9 = load ptr, ptr %8, align 8
  %10 = icmp eq ptr %9, null
  br i1 %10, label %21, label %11

11:                                               ; preds = %2
  %12 = load ptr, ptr %5, align 8
  %13 = call ptr @Aig_ObjFanin0(ptr noundef %12)
  %14 = call i32 @Aig_ObjRefs(ptr noundef %13)
  %15 = icmp ne i32 %14, 0
  br i1 %15, label %16, label %21

16:                                               ; preds = %11
  %17 = load ptr, ptr %5, align 8
  %18 = call ptr @Aig_ObjFanin1(ptr noundef %17)
  %19 = call i32 @Aig_ObjRefs(ptr noundef %18)
  %20 = icmp ne i32 %19, 0
  br i1 %20, label %22, label %21

21:                                               ; preds = %16, %11, %2
  store ptr null, ptr %3, align 8
  br label %62

22:                                               ; preds = %16
  %23 = load ptr, ptr %4, align 8
  %24 = getelementptr inbounds %struct.Aig_Man_t_, ptr %23, i32 0, i32 16
  %25 = load ptr, ptr %24, align 8
  %26 = load ptr, ptr %5, align 8
  %27 = load ptr, ptr %4, align 8
  %28 = getelementptr inbounds %struct.Aig_Man_t_, ptr %27, i32 0, i32 17
  %29 = load i32, ptr %28, align 8
  %30 = call i64 @Aig_Hash(ptr noundef %26, i32 noundef %29)
  %31 = getelementptr inbounds ptr, ptr %25, i64 %30
  %32 = load ptr, ptr %31, align 8
  store ptr %32, ptr %6, align 8
  br label %33

33:                                               ; preds = %57, %22
  %34 = load ptr, ptr %6, align 8
  %35 = icmp ne ptr %34, null
  br i1 %35, label %36, label %61

36:                                               ; preds = %33
  %37 = load ptr, ptr %6, align 8
  %38 = call ptr @Aig_ObjChild0(ptr noundef %37)
  %39 = load ptr, ptr %5, align 8
  %40 = call ptr @Aig_ObjChild0(ptr noundef %39)
  %41 = icmp eq ptr %38, %40
  br i1 %41, label %42, label %56

42:                                               ; preds = %36
  %43 = load ptr, ptr %6, align 8
  %44 = call ptr @Aig_ObjChild1(ptr noundef %43)
  %45 = load ptr, ptr %5, align 8
  %46 = call ptr @Aig_ObjChild1(ptr noundef %45)
  %47 = icmp eq ptr %44, %46
  br i1 %47, label %48, label %56

48:                                               ; preds = %42
  %49 = load ptr, ptr %6, align 8
  %50 = call i32 @Aig_ObjType(ptr noundef %49)
  %51 = load ptr, ptr %5, align 8
  %52 = call i32 @Aig_ObjType(ptr noundef %51)
  %53 = icmp eq i32 %50, %52
  br i1 %53, label %54, label %56

54:                                               ; preds = %48
  %55 = load ptr, ptr %6, align 8
  store ptr %55, ptr %3, align 8
  br label %62

56:                                               ; preds = %48, %42, %36
  br label %57

57:                                               ; preds = %56
  %58 = load ptr, ptr %6, align 8
  %59 = getelementptr inbounds %struct.Aig_Obj_t_, ptr %58, i32 0, i32 0
  %60 = load ptr, ptr %59, align 8
  store ptr %60, ptr %6, align 8
  br label %33, !llvm.loop !10

61:                                               ; preds = %33
  store ptr null, ptr %3, align 8
  br label %62

62:                                               ; preds = %61, %54, %21
  %63 = load ptr, ptr %3, align 8
  ret ptr %63
}

; Function Attrs: nounwind uwtable
define internal ptr @Aig_ObjCreateGhost(ptr noundef %0, ptr noundef %1, ptr noundef %2, i32 noundef %3) #0 {
  %5 = alloca ptr, align 8
  %6 = alloca ptr, align 8
  %7 = alloca ptr, align 8
  %8 = alloca i32, align 4
  %9 = alloca ptr, align 8
  store ptr %0, ptr %5, align 8
  store ptr %1, ptr %6, align 8
  store ptr %2, ptr %7, align 8
  store i32 %3, ptr %8, align 4
  %10 = load ptr, ptr %5, align 8
  %11 = call ptr @Aig_ManGhost(ptr noundef %10)
  store ptr %11, ptr %9, align 8
  %12 = load i32, ptr %8, align 4
  %13 = load ptr, ptr %9, align 8
  %14 = getelementptr inbounds %struct.Aig_Obj_t_, ptr %13, i32 0, i32 3
  %15 = zext i32 %12 to i64
  %16 = load i64, ptr %14, align 8
  %17 = and i64 %15, 7
  %18 = and i64 %16, -8
  %19 = or i64 %18, %17
  store i64 %19, ptr %14, align 8
  %20 = load ptr, ptr %7, align 8
  %21 = icmp eq ptr %20, null
  br i1 %21, label %32, label %22

22:                                               ; preds = %4
  %23 = load ptr, ptr %6, align 8
  %24 = call ptr @Aig_Regular(ptr noundef %23)
  %25 = getelementptr inbounds %struct.Aig_Obj_t_, ptr %24, i32 0, i32 5
  %26 = load i32, ptr %25, align 4
  %27 = load ptr, ptr %7, align 8
  %28 = call ptr @Aig_Regular(ptr noundef %27)
  %29 = getelementptr inbounds %struct.Aig_Obj_t_, ptr %28, i32 0, i32 5
  %30 = load i32, ptr %29, align 4
  %31 = icmp slt i32 %26, %30
  br i1 %31, label %32, label %39

32:                                               ; preds = %22, %4
  %33 = load ptr, ptr %6, align 8
  %34 = load ptr, ptr %9, align 8
  %35 = getelementptr inbounds %struct.Aig_Obj_t_, ptr %34, i32 0, i32 1
  store ptr %33, ptr %35, align 8
  %36 = load ptr, ptr %7, align 8
  %37 = load ptr, ptr %9, align 8
  %38 = getelementptr inbounds %struct.Aig_Obj_t_, ptr %37, i32 0, i32 2
  store ptr %36, ptr %38, align 8
  br label %46

39:                                               ; preds = %22
  %40 = load ptr, ptr %7, align 8
  %41 = load ptr, ptr %9, align 8
  %42 = getelementptr inbounds %struct.Aig_Obj_t_, ptr %41, i32 0, i32 1
  store ptr %40, ptr %42, align 8
  %43 = load ptr, ptr %6, align 8
  %44 = load ptr, ptr %9, align 8
  %45 = getelementptr inbounds %struct.Aig_Obj_t_, ptr %44, i32 0, i32 2
  store ptr %43, ptr %45, align 8
  br label %46

46:                                               ; preds = %39, %32
  %47 = load ptr, ptr %9, align 8
  ret ptr %47
}

; Function Attrs: nounwind uwtable
define internal ptr @Aig_ManConst1(ptr noundef %0) #0 {
  %2 = alloca ptr, align 8
  store ptr %0, ptr %2, align 8
  %3 = load ptr, ptr %2, align 8
  %4 = getelementptr inbounds %struct.Aig_Man_t_, ptr %3, i32 0, i32 6
  %5 = load ptr, ptr %4, align 8
  ret ptr %5
}

; Function Attrs: nounwind uwtable
define internal ptr @Aig_Regular(ptr noundef %0) #0 {
  %2 = alloca ptr, align 8
  store ptr %0, ptr %2, align 8
  %3 = load ptr, ptr %2, align 8
  %4 = ptrtoint ptr %3 to i64
  %5 = and i64 %4, -2
  %6 = inttoptr i64 %5 to ptr
  ret ptr %6
}

; Function Attrs: nounwind uwtable
define internal ptr @Aig_ManConst0(ptr noundef %0) #0 {
  %2 = alloca ptr, align 8
  store ptr %0, ptr %2, align 8
  %3 = load ptr, ptr %2, align 8
  %4 = getelementptr inbounds %struct.Aig_Man_t_, ptr %3, i32 0, i32 6
  %5 = load ptr, ptr %4, align 8
  %6 = call ptr @Aig_Not(ptr noundef %5)
  ret ptr %6
}

; Function Attrs: nounwind uwtable
define internal ptr @Aig_Not(ptr noundef %0) #0 {
  %2 = alloca ptr, align 8
  store ptr %0, ptr %2, align 8
  %3 = load ptr, ptr %2, align 8
  %4 = ptrtoint ptr %3 to i64
  %5 = xor i64 %4, 1
  %6 = inttoptr i64 %5 to ptr
  ret ptr %6
}

; Function Attrs: nounwind uwtable
define ptr @Aig_TableLookupTwo(ptr noundef %0, ptr noundef %1, ptr noundef %2) #0 {
  %4 = alloca ptr, align 8
  %5 = alloca ptr, align 8
  %6 = alloca ptr, align 8
  %7 = alloca ptr, align 8
  %8 = alloca ptr, align 8
  store ptr %0, ptr %5, align 8
  store ptr %1, ptr %6, align 8
  store ptr %2, ptr %7, align 8
  %9 = load ptr, ptr %6, align 8
  %10 = load ptr, ptr %7, align 8
  %11 = icmp eq ptr %9, %10
  br i1 %11, label %12, label %14

12:                                               ; preds = %3
  %13 = load ptr, ptr %6, align 8
  store ptr %13, ptr %4, align 8
  br label %66

14:                                               ; preds = %3
  %15 = load ptr, ptr %6, align 8
  %16 = load ptr, ptr %7, align 8
  %17 = call ptr @Aig_Not(ptr noundef %16)
  %18 = icmp eq ptr %15, %17
  br i1 %18, label %19, label %22

19:                                               ; preds = %14
  %20 = load ptr, ptr %5, align 8
  %21 = call ptr @Aig_ManConst0(ptr noundef %20)
  store ptr %21, ptr %4, align 8
  br label %66

22:                                               ; preds = %14
  %23 = load ptr, ptr %6, align 8
  %24 = call ptr @Aig_Regular(ptr noundef %23)
  %25 = load ptr, ptr %5, align 8
  %26 = call ptr @Aig_ManConst1(ptr noundef %25)
  %27 = icmp eq ptr %24, %26
  br i1 %27, label %28, label %40

28:                                               ; preds = %22
  %29 = load ptr, ptr %6, align 8
  %30 = load ptr, ptr %5, align 8
  %31 = call ptr @Aig_ManConst1(ptr noundef %30)
  %32 = icmp eq ptr %29, %31
  br i1 %32, label %33, label %35

33:                                               ; preds = %28
  %34 = load ptr, ptr %7, align 8
  br label %38

35:                                               ; preds = %28
  %36 = load ptr, ptr %5, align 8
  %37 = call ptr @Aig_ManConst0(ptr noundef %36)
  br label %38

38:                                               ; preds = %35, %33
  %39 = phi ptr [ %34, %33 ], [ %37, %35 ]
  store ptr %39, ptr %4, align 8
  br label %66

40:                                               ; preds = %22
  %41 = load ptr, ptr %7, align 8
  %42 = call ptr @Aig_Regular(ptr noundef %41)
  %43 = load ptr, ptr %5, align 8
  %44 = call ptr @Aig_ManConst1(ptr noundef %43)
  %45 = icmp eq ptr %42, %44
  br i1 %45, label %46, label %58

46:                                               ; preds = %40
  %47 = load ptr, ptr %7, align 8
  %48 = load ptr, ptr %5, align 8
  %49 = call ptr @Aig_ManConst1(ptr noundef %48)
  %50 = icmp eq ptr %47, %49
  br i1 %50, label %51, label %53

51:                                               ; preds = %46
  %52 = load ptr, ptr %6, align 8
  br label %56

53:                                               ; preds = %46
  %54 = load ptr, ptr %5, align 8
  %55 = call ptr @Aig_ManConst0(ptr noundef %54)
  br label %56

56:                                               ; preds = %53, %51
  %57 = phi ptr [ %52, %51 ], [ %55, %53 ]
  store ptr %57, ptr %4, align 8
  br label %66

58:                                               ; preds = %40
  %59 = load ptr, ptr %5, align 8
  %60 = load ptr, ptr %6, align 8
  %61 = load ptr, ptr %7, align 8
  %62 = call ptr @Aig_ObjCreateGhost(ptr noundef %59, ptr noundef %60, ptr noundef %61, i32 noundef 5)
  store ptr %62, ptr %8, align 8
  %63 = load ptr, ptr %5, align 8
  %64 = load ptr, ptr %8, align 8
  %65 = call ptr @Aig_TableLookup(ptr noundef %63, ptr noundef %64)
  store ptr %65, ptr %4, align 8
  br label %66

66:                                               ; preds = %58, %56, %38, %19, %12
  %67 = load ptr, ptr %4, align 8
  ret ptr %67
}