; Function Attrs: nofree norecurse nosync nounwind memory(read, argmem: readwrite, inaccessiblemem: none) uwtable
define ptr @Aig_TableLookupTwo(ptr noundef captures(none) %0, ptr noundef %1, ptr noundef %2) local_unnamed_addr #3 {
  %4 = icmp eq ptr %1, %2
  br i1 %4, label %Aig_TableLookup.exit, label %5

5:                                                ; preds = %3
  %6 = ptrtoint ptr %2 to i64
  %7 = xor i64 %6, 1
  %8 = inttoptr i64 %7 to ptr
  %9 = icmp eq ptr %1, %8
  br i1 %9, label %10, label %15

10:                                               ; preds = %5
  %11 = getelementptr i8, ptr %0, i64 48
  %.val = load ptr, ptr %11, align 8
  %12 = ptrtoint ptr %.val to i64
  %13 = xor i64 %12, 1
  %14 = inttoptr i64 %13 to ptr
  br label %Aig_TableLookup.exit

15:                                               ; preds = %5
  %16 = ptrtoint ptr %1 to i64
  %17 = and i64 %16, -2
  %18 = inttoptr i64 %17 to ptr
  %19 = getelementptr i8, ptr %0, i64 48
  %.val28 = load ptr, ptr %19, align 8
  %20 = icmp eq ptr %.val28, %18
  br i1 %20, label %21, label %26

21:                                               ; preds = %15
  %22 = icmp eq ptr %1, %18
  br i1 %22, label %Aig_TableLookup.exit, label %23

23:                                               ; preds = %21
  %24 = or i64 %16, 1
  %25 = inttoptr i64 %24 to ptr
  br label %Aig_TableLookup.exit

26:                                               ; preds = %15
  %27 = and i64 %6, -2
  %28 = inttoptr i64 %27 to ptr
  %29 = icmp eq ptr %.val28, %28
  br i1 %29, label %30, label %36

30:                                               ; preds = %26
  %31 = icmp eq ptr %2, %.val28
  br i1 %31, label %Aig_TableLookup.exit, label %32

32:                                               ; preds = %30
  %33 = ptrtoint ptr %.val28 to i64
  %34 = xor i64 %33, 1
  %35 = inttoptr i64 %34 to ptr
  br label %Aig_TableLookup.exit

36:                                               ; preds = %26
  %37 = getelementptr i8, ptr %0, i64 80
  %38 = load i64, ptr %37, align 8
  %39 = and i64 %38, -8
  %40 = or disjoint i64 %39, 5
  store i64 %40, ptr %37, align 8
  %41 = icmp eq ptr %2, null
  br i1 %41, label %Aig_ObjCreateGhost.exit, label %42

42:                                               ; preds = %36
  %43 = getelementptr inbounds nuw i8, ptr %18, i64 36
  %44 = load i32, ptr %43, align 4
  %45 = getelementptr inbounds nuw i8, ptr %28, i64 36
  %46 = load i32, ptr %45, align 4
  %47 = icmp slt i32 %44, %46
  %spec.select.i = select i1 %47, ptr %1, ptr %2
  %spec.select17.i = select i1 %47, ptr %2, ptr %1
  br label %Aig_ObjCreateGhost.exit

Aig_ObjCreateGhost.exit:                          ; preds = %36, %42
  %.val.i = phi ptr [ %1, %36 ], [ %spec.select.i, %42 ]
  %.val19.i = phi ptr [ null, %36 ], [ %spec.select17.i, %42 ]
  %48 = getelementptr i8, ptr %0, i64 64
  store ptr %.val.i, ptr %48, align 8
  %49 = getelementptr i8, ptr %0, i64 72
  store ptr %.val19.i, ptr %49, align 8
  %50 = getelementptr inbounds nuw i8, ptr %0, i64 160
  %51 = load ptr, ptr %50, align 8
  %52 = icmp eq ptr %51, null
  br i1 %52, label %Aig_TableLookup.exit, label %53

53:                                               ; preds = %Aig_ObjCreateGhost.exit
  %54 = ptrtoint ptr %.val.i to i64
  %55 = and i64 %54, -2
  %56 = inttoptr i64 %55 to ptr
  %57 = getelementptr i8, ptr %56, i64 24
  %.val20.i = load i64, ptr %57, align 8
  %58 = and i64 %.val20.i, 4294967232
  %.not.i = icmp eq i64 %58, 0
  br i1 %.not.i, label %Aig_TableLookup.exit, label %59

59:                                               ; preds = %53
  %60 = ptrtoint ptr %.val19.i to i64
  %61 = and i64 %60, -2
  %62 = inttoptr i64 %61 to ptr
  %63 = getelementptr i8, ptr %62, i64 24
  %.val21.i = load i64, ptr %63, align 8
  %64 = and i64 %.val21.i, 4294967232
  %.not17.i = icmp eq i64 %64, 0
  br i1 %.not17.i, label %Aig_TableLookup.exit, label %65

65:                                               ; preds = %59
  %66 = getelementptr inbounds nuw i8, ptr %0, i64 168
  %67 = load i32, ptr %66, align 8
  %68 = getelementptr inbounds nuw i8, ptr %56, i64 36
  %69 = load i32, ptr %68, align 4
  %70 = mul nsw i32 %69, 7937
  %71 = sext i32 %70 to i64
  %72 = getelementptr inbounds nuw i8, ptr %62, i64 36
  %73 = load i32, ptr %72, align 4
  %74 = mul nsw i32 %73, 2971
  %75 = sext i32 %74 to i64
  %76 = trunc i64 %54 to i1
  %77 = select i1 %76, i64 911, i64 0
  %78 = trunc i64 %60 to i1
  %79 = select i1 %78, i64 353, i64 0
  %80 = xor i64 %79, %77
  %81 = xor i64 %80, %71
  %82 = xor i64 %81, %75
  %83 = sext i32 %67 to i64
  %84 = urem i64 %82, %83
  %85 = getelementptr inbounds ptr, ptr %51, i64 %84
  %.027.i = load ptr, ptr %85, align 8
  %.not1828.i = icmp eq ptr %.027.i, null
  br i1 %.not1828.i, label %Aig_TableLookup.exit, label %.lr.ph.i

.lr.ph.i:                                         ; preds = %65, %95
  %.029.i = phi ptr [ %.0.i, %95 ], [ %.027.i, %65 ]
  %86 = getelementptr i8, ptr %.029.i, i64 8
  %.0.val.i = load ptr, ptr %86, align 8
  %87 = icmp eq ptr %.0.val.i, %.val.i
  br i1 %87, label %88, label %95

88:                                               ; preds = %.lr.ph.i
  %89 = getelementptr i8, ptr %.029.i, i64 16
  %.0.val23.i = load ptr, ptr %89, align 8
  %90 = icmp eq ptr %.0.val23.i, %.val19.i
  br i1 %90, label %91, label %95

91:                                               ; preds = %88
  %92 = getelementptr i8, ptr %.029.i, i64 24
  %.0.val25.i = load i64, ptr %92, align 8
  %93 = and i64 %.0.val25.i, 7
  %94 = icmp eq i64 %93, 5
  br i1 %94, label %Aig_TableLookup.exit, label %95

95:                                               ; preds = %91, %88, %.lr.ph.i
  %.0.i = load ptr, ptr %.029.i, align 8
  %.not18.i = icmp eq ptr %.0.i, null
  br i1 %.not18.i, label %Aig_TableLookup.exit, label %.lr.ph.i, !llvm.loop !10

Aig_TableLookup.exit:                             ; preds = %95, %91, %65, %59, %53, %Aig_ObjCreateGhost.exit, %32, %30, %23, %21, %3, %10
  %.0 = phi ptr [ %14, %10 ], [ %1, %3 ], [ %25, %23 ], [ %2, %21 ], [ %35, %32 ], [ %1, %30 ], [ null, %59 ], [ null, %53 ], [ null, %Aig_ObjCreateGhost.exit ], [ null, %65 ], [ null, %95 ], [ %.029.i, %91 ]
  ret ptr %.0
}